
uTimer testing.elf:     file format elf32-avr

Sections:
Idx Name          Size      VMA       LMA       File off  Algn
  0 .data         00000000  00800200  00800200  00000222  2**0
                  CONTENTS, ALLOC, LOAD, DATA
  1 .text         000001ce  00000000  00000000  00000054  2**1
                  CONTENTS, ALLOC, LOAD, READONLY, CODE
  2 .comment      00000030  00000000  00000000  00000222  2**0
                  CONTENTS, READONLY
  3 .note.gnu.avr.deviceinfo 00000040  00000000  00000000  00000254  2**2
                  CONTENTS, READONLY
  4 .debug_aranges 00000050  00000000  00000000  00000294  2**0
                  CONTENTS, READONLY, DEBUGGING
  5 .debug_info   00000dd3  00000000  00000000  000002e4  2**0
                  CONTENTS, READONLY, DEBUGGING
  6 .debug_abbrev 00000c7e  00000000  00000000  000010b7  2**0
                  CONTENTS, READONLY, DEBUGGING
  7 .debug_line   0000044e  00000000  00000000  00001d35  2**0
                  CONTENTS, READONLY, DEBUGGING
  8 .debug_frame  00000068  00000000  00000000  00002184  2**2
                  CONTENTS, READONLY, DEBUGGING
  9 .debug_str    00000554  00000000  00000000  000021ec  2**0
                  CONTENTS, READONLY, DEBUGGING
 10 .debug_loc    000000b4  00000000  00000000  00002740  2**0
                  CONTENTS, READONLY, DEBUGGING
 11 .debug_ranges 00000068  00000000  00000000  000027f4  2**0
                  CONTENTS, READONLY, DEBUGGING

Disassembly of section .text:

00000000 <__vectors>:
   0:	71 c0       	rjmp	.+226    	; 0xe4 <__ctors_end>
   2:	00 00       	nop
   4:	79 c0       	rjmp	.+242    	; 0xf8 <__bad_interrupt>
   6:	00 00       	nop
   8:	77 c0       	rjmp	.+238    	; 0xf8 <__bad_interrupt>
   a:	00 00       	nop
   c:	75 c0       	rjmp	.+234    	; 0xf8 <__bad_interrupt>
   e:	00 00       	nop
  10:	73 c0       	rjmp	.+230    	; 0xf8 <__bad_interrupt>
  12:	00 00       	nop
  14:	71 c0       	rjmp	.+226    	; 0xf8 <__bad_interrupt>
  16:	00 00       	nop
  18:	6f c0       	rjmp	.+222    	; 0xf8 <__bad_interrupt>
  1a:	00 00       	nop
  1c:	6d c0       	rjmp	.+218    	; 0xf8 <__bad_interrupt>
  1e:	00 00       	nop
  20:	6b c0       	rjmp	.+214    	; 0xf8 <__bad_interrupt>
  22:	00 00       	nop
  24:	69 c0       	rjmp	.+210    	; 0xf8 <__bad_interrupt>
  26:	00 00       	nop
  28:	67 c0       	rjmp	.+206    	; 0xf8 <__bad_interrupt>
  2a:	00 00       	nop
  2c:	65 c0       	rjmp	.+202    	; 0xf8 <__bad_interrupt>
  2e:	00 00       	nop
  30:	63 c0       	rjmp	.+198    	; 0xf8 <__bad_interrupt>
  32:	00 00       	nop
  34:	61 c0       	rjmp	.+194    	; 0xf8 <__bad_interrupt>
  36:	00 00       	nop
  38:	5f c0       	rjmp	.+190    	; 0xf8 <__bad_interrupt>
  3a:	00 00       	nop
  3c:	5d c0       	rjmp	.+186    	; 0xf8 <__bad_interrupt>
  3e:	00 00       	nop
  40:	5b c0       	rjmp	.+182    	; 0xf8 <__bad_interrupt>
  42:	00 00       	nop
  44:	59 c0       	rjmp	.+178    	; 0xf8 <__bad_interrupt>
  46:	00 00       	nop
  48:	57 c0       	rjmp	.+174    	; 0xf8 <__bad_interrupt>
  4a:	00 00       	nop
  4c:	55 c0       	rjmp	.+170    	; 0xf8 <__bad_interrupt>
  4e:	00 00       	nop
  50:	53 c0       	rjmp	.+166    	; 0xf8 <__bad_interrupt>
  52:	00 00       	nop
  54:	51 c0       	rjmp	.+162    	; 0xf8 <__bad_interrupt>
  56:	00 00       	nop
  58:	4f c0       	rjmp	.+158    	; 0xf8 <__bad_interrupt>
  5a:	00 00       	nop
  5c:	4d c0       	rjmp	.+154    	; 0xf8 <__bad_interrupt>
  5e:	00 00       	nop
  60:	4b c0       	rjmp	.+150    	; 0xf8 <__bad_interrupt>
  62:	00 00       	nop
  64:	49 c0       	rjmp	.+146    	; 0xf8 <__bad_interrupt>
  66:	00 00       	nop
  68:	47 c0       	rjmp	.+142    	; 0xf8 <__bad_interrupt>
  6a:	00 00       	nop
  6c:	45 c0       	rjmp	.+138    	; 0xf8 <__bad_interrupt>
  6e:	00 00       	nop
  70:	43 c0       	rjmp	.+134    	; 0xf8 <__bad_interrupt>
  72:	00 00       	nop
  74:	41 c0       	rjmp	.+130    	; 0xf8 <__bad_interrupt>
  76:	00 00       	nop
  78:	3f c0       	rjmp	.+126    	; 0xf8 <__bad_interrupt>
  7a:	00 00       	nop
  7c:	3d c0       	rjmp	.+122    	; 0xf8 <__bad_interrupt>
  7e:	00 00       	nop
  80:	3b c0       	rjmp	.+118    	; 0xf8 <__bad_interrupt>
  82:	00 00       	nop
  84:	39 c0       	rjmp	.+114    	; 0xf8 <__bad_interrupt>
  86:	00 00       	nop
  88:	37 c0       	rjmp	.+110    	; 0xf8 <__bad_interrupt>
  8a:	00 00       	nop
  8c:	35 c0       	rjmp	.+106    	; 0xf8 <__bad_interrupt>
  8e:	00 00       	nop
  90:	33 c0       	rjmp	.+102    	; 0xf8 <__bad_interrupt>
  92:	00 00       	nop
  94:	31 c0       	rjmp	.+98     	; 0xf8 <__bad_interrupt>
  96:	00 00       	nop
  98:	2f c0       	rjmp	.+94     	; 0xf8 <__bad_interrupt>
  9a:	00 00       	nop
  9c:	2d c0       	rjmp	.+90     	; 0xf8 <__bad_interrupt>
  9e:	00 00       	nop
  a0:	2b c0       	rjmp	.+86     	; 0xf8 <__bad_interrupt>
  a2:	00 00       	nop
  a4:	29 c0       	rjmp	.+82     	; 0xf8 <__bad_interrupt>
  a6:	00 00       	nop
  a8:	27 c0       	rjmp	.+78     	; 0xf8 <__bad_interrupt>
  aa:	00 00       	nop
  ac:	25 c0       	rjmp	.+74     	; 0xf8 <__bad_interrupt>
  ae:	00 00       	nop
  b0:	23 c0       	rjmp	.+70     	; 0xf8 <__bad_interrupt>
  b2:	00 00       	nop
  b4:	21 c0       	rjmp	.+66     	; 0xf8 <__bad_interrupt>
  b6:	00 00       	nop
  b8:	1f c0       	rjmp	.+62     	; 0xf8 <__bad_interrupt>
  ba:	00 00       	nop
  bc:	1d c0       	rjmp	.+58     	; 0xf8 <__bad_interrupt>
  be:	00 00       	nop
  c0:	1b c0       	rjmp	.+54     	; 0xf8 <__bad_interrupt>
  c2:	00 00       	nop
  c4:	19 c0       	rjmp	.+50     	; 0xf8 <__bad_interrupt>
  c6:	00 00       	nop
  c8:	17 c0       	rjmp	.+46     	; 0xf8 <__bad_interrupt>
  ca:	00 00       	nop
  cc:	15 c0       	rjmp	.+42     	; 0xf8 <__bad_interrupt>
  ce:	00 00       	nop
  d0:	13 c0       	rjmp	.+38     	; 0xf8 <__bad_interrupt>
  d2:	00 00       	nop
  d4:	11 c0       	rjmp	.+34     	; 0xf8 <__bad_interrupt>
  d6:	00 00       	nop
  d8:	0f c0       	rjmp	.+30     	; 0xf8 <__bad_interrupt>
  da:	00 00       	nop
  dc:	0d c0       	rjmp	.+26     	; 0xf8 <__bad_interrupt>
  de:	00 00       	nop
  e0:	0b c0       	rjmp	.+22     	; 0xf8 <__bad_interrupt>
	...

000000e4 <__ctors_end>:
  e4:	11 24       	eor	r1, r1
  e6:	1f be       	out	0x3f, r1	; 63
  e8:	cf ef       	ldi	r28, 0xFF	; 255
  ea:	d1 e2       	ldi	r29, 0x21	; 33
  ec:	de bf       	out	0x3e, r29	; 62
  ee:	cd bf       	out	0x3d, r28	; 61
  f0:	00 e0       	ldi	r16, 0x00	; 0
  f2:	0c bf       	out	0x3c, r16	; 60
  f4:	02 d0       	rcall	.+4      	; 0xfa <main>
  f6:	69 c0       	rjmp	.+210    	; 0x1ca <_exit>

000000f8 <__bad_interrupt>:
  f8:	83 cf       	rjmp	.-250    	; 0x0 <__vectors>

000000fa <main>:
#include <avr/interrupt.h>
#include <avr/io.h>
#include "Timer.h"

int main() {
	timer8MHz();//setup the chip clock to 8 MHz
  fa:	2e d0       	rcall	.+92     	; 0x158 <timer8MHz>
	DDRL = 0xFF;//sets debug lights to output
  fc:	8f ef       	ldi	r24, 0xFF	; 255
  fe:	80 93 0a 01 	sts	0x010A, r24	; 0x80010a <__TEXT_REGION_LENGTH__+0x7c010a>
	mTimer(500);
 102:	84 ef       	ldi	r24, 0xF4	; 244
 104:	91 e0       	ldi	r25, 0x01	; 1
 106:	32 d0       	rcall	.+100    	; 0x16c <mTimer>
	sei();
 108:	78 94       	sei
	while(1){
		for(int i = 0; i < 500; i += 50){
			for(int j = 0; j < 100; j++){
				PORTL = 0xF0;
 10a:	0b e0       	ldi	r16, 0x0B	; 11
 10c:	11 e0       	ldi	r17, 0x01	; 1
				uTimer((unsigned int)(i));
				PORTL = 0x00;
				uTimer((unsigned int)(500-i));
 10e:	0f 2e       	mov	r0, r31
 110:	f4 ef       	ldi	r31, 0xF4	; 244
 112:	8f 2e       	mov	r8, r31
 114:	99 24       	eor	r9, r9
 116:	93 94       	inc	r9
 118:	f0 2d       	mov	r31, r0
	mTimer(500);
	sei();
	while(1){
		for(int i = 0; i < 500; i += 50){
			for(int j = 0; j < 100; j++){
				PORTL = 0xF0;
 11a:	0f 2e       	mov	r0, r31
 11c:	f0 ef       	ldi	r31, 0xF0	; 240
 11e:	bf 2e       	mov	r11, r31
 120:	f0 2d       	mov	r31, r0
	timer8MHz();//setup the chip clock to 8 MHz
	DDRL = 0xFF;//sets debug lights to output
	mTimer(500);
	sei();
	while(1){
		for(int i = 0; i < 500; i += 50){
 122:	e1 2c       	mov	r14, r1
 124:	f1 2c       	mov	r15, r1
 126:	12 c0       	rjmp	.+36     	; 0x14c <main+0x52>
			for(int j = 0; j < 100; j++){
				PORTL = 0xF0;
 128:	f8 01       	movw	r30, r16
				uTimer((unsigned int)(i));
 12a:	b0 82       	st	Z, r11
 12c:	c7 01       	movw	r24, r14
 12e:	3e d0       	rcall	.+124    	; 0x1ac <uTimer>
				PORTL = 0x00;
 130:	f8 01       	movw	r30, r16
				uTimer((unsigned int)(500-i));
 132:	10 82       	st	Z, r1
 134:	c6 01       	movw	r24, r12
 136:	3a d0       	rcall	.+116    	; 0x1ac <uTimer>
 138:	21 97       	sbiw	r28, 0x01	; 1
	DDRL = 0xFF;//sets debug lights to output
	mTimer(500);
	sei();
	while(1){
		for(int i = 0; i < 500; i += 50){
			for(int j = 0; j < 100; j++){
 13a:	b1 f7       	brne	.-20     	; 0x128 <main+0x2e>
	timer8MHz();//setup the chip clock to 8 MHz
	DDRL = 0xFF;//sets debug lights to output
	mTimer(500);
	sei();
	while(1){
		for(int i = 0; i < 500; i += 50){
 13c:	f2 e3       	ldi	r31, 0x32	; 50
 13e:	ef 0e       	add	r14, r31
 140:	f1 1c       	adc	r15, r1
 142:	84 ef       	ldi	r24, 0xF4	; 244
 144:	e8 16       	cp	r14, r24
 146:	81 e0       	ldi	r24, 0x01	; 1
 148:	f8 06       	cpc	r15, r24
 14a:	59 f3       	breq	.-42     	; 0x122 <main+0x28>
#include <stdlib.h>
#include <avr/interrupt.h>
#include <avr/io.h>
#include "Timer.h"

int main() {
 14c:	c4 e6       	ldi	r28, 0x64	; 100
 14e:	d0 e0       	ldi	r29, 0x00	; 0
		for(int i = 0; i < 500; i += 50){
			for(int j = 0; j < 100; j++){
				PORTL = 0xF0;
				uTimer((unsigned int)(i));
				PORTL = 0x00;
				uTimer((unsigned int)(500-i));
 150:	64 01       	movw	r12, r8
 152:	ce 18       	sub	r12, r14
 154:	df 08       	sbc	r13, r15
 156:	e8 cf       	rjmp	.-48     	; 0x128 <main+0x2e>

00000158 <timer8MHz>:

//This file contains the timer subroutines from lab 2. They have been repurposed for use in future labs

void timer8MHz(){ //sets the timer to 8MHz

    CLKPR = 0x80; /* This will be discussed later. */
 158:	e1 e6       	ldi	r30, 0x61	; 97
 15a:	f0 e0       	ldi	r31, 0x00	; 0
 15c:	80 e8       	ldi	r24, 0x80	; 128
 15e:	80 83       	st	Z, r24
    CLKPR = 0x01; /* Required to set CPU Clock to 8MHz */
 160:	81 e0       	ldi	r24, 0x01	; 1
 162:	80 83       	st	Z, r24
    
    /* Timer instructions */
    /* Sets timer 1 to run at 1MHz, note: CPU clock is set to 8MHz.
       Disable all functions and use as pure timer */
    
    TCCR1B = _BV(CS11); /* _BV sets the bit to logic 1 */
 164:	82 e0       	ldi	r24, 0x02	; 2
 166:	80 93 81 00 	sts	0x0081, r24	; 0x800081 <__TEXT_REGION_LENGTH__+0x7c0081>
 16a:	08 95       	ret

0000016c <mTimer>:
    /* CS means clock select, has the pre-scaler set to 8 */

} /* close timer8MHz */

/* This is the driver for the timer. */
void mTimer(int count){
 16c:	ac 01       	movw	r20, r24
    int i; /* keeps track of loop number */

    i = 0; /* initializes loop counter */

    /* Set the Waveform Generation mode bit description to Clear Timer on Compare Match mode (CTC) only */
    TCCR1B |= _BV(WGM12); /* set WGM bits to 0100, see page 145 */
 16e:	e1 e8       	ldi	r30, 0x81	; 129
 170:	f0 e0       	ldi	r31, 0x00	; 0
 172:	90 81       	ld	r25, Z
 174:	98 60       	ori	r25, 0x08	; 8
 176:	90 83       	st	Z, r25
    /* Note WGM is spread over two registers. */

    OCR1A = 0x03E8; /* Set Output Compare Register for 1000 cycles = 1ms */
 178:	88 ee       	ldi	r24, 0xE8	; 232
 17a:	93 e0       	ldi	r25, 0x03	; 3
 17c:	90 93 89 00 	sts	0x0089, r25	; 0x800089 <__TEXT_REGION_LENGTH__+0x7c0089>
 180:	80 93 88 00 	sts	0x0088, r24	; 0x800088 <__TEXT_REGION_LENGTH__+0x7c0088>
    TCNT1 = 0x0000; /* Sets initial value of Timer Counter to 0x0000 */
 184:	10 92 85 00 	sts	0x0085, r1	; 0x800085 <__TEXT_REGION_LENGTH__+0x7c0085>
 188:	10 92 84 00 	sts	0x0084, r1	; 0x800084 <__TEXT_REGION_LENGTH__+0x7c0084>

    TIFR1 |= _BV(OCF1A); /* clear the timer interrupt flag and begin new timing */
 18c:	b1 9a       	sbi	0x16, 1	; 22
    The system clock has been pre-scaled by 2. This means it's running at half speed, 8MHz. See Technical manual for
    ATmega2560 (i.e. full manual) and look up "16-bit Timer/Counter1." */

    int i; /* keeps track of loop number */

    i = 0; /* initializes loop counter */
 18e:	20 e0       	ldi	r18, 0x00	; 0
 190:	30 e0       	ldi	r19, 0x00	; 0

    TIFR1 |= _BV(OCF1A); /* clear the timer interrupt flag and begin new timing */
    /* If the following statement is confusing, please ask for clarification! */

    /* Poll the timer to determine when the timer has reached 0x03E8 */
    while(i<count){
 192:	05 c0       	rjmp	.+10     	; 0x19e <mTimer+0x32>
        if((TIFR1 & 0x02) == 0x02){
 194:	b1 9b       	sbis	0x16, 1	; 22
 196:	fe cf       	rjmp	.-4      	; 0x194 <mTimer+0x28>
            TIFR1 |= _BV(OCF1A); /* clear interrupt flag by writing a ONE to the bit */
 198:	b1 9a       	sbi	0x16, 1	; 22
            i++; /* increment loop number */
 19a:	2f 5f       	subi	r18, 0xFF	; 255
 19c:	3f 4f       	sbci	r19, 0xFF	; 255

    TIFR1 |= _BV(OCF1A); /* clear the timer interrupt flag and begin new timing */
    /* If the following statement is confusing, please ask for clarification! */

    /* Poll the timer to determine when the timer has reached 0x03E8 */
    while(i<count){
 19e:	24 17       	cp	r18, r20
 1a0:	35 07       	cpc	r19, r21
 1a2:	1c f4       	brge	.+6      	; 0x1aa <mTimer+0x3e>
        if((TIFR1 & 0x02) == 0x02){
 1a4:	b1 9b       	sbis	0x16, 1	; 22
 1a6:	f6 cf       	rjmp	.-20     	; 0x194 <mTimer+0x28>
 1a8:	f7 cf       	rjmp	.-18     	; 0x198 <mTimer+0x2c>
 1aa:	08 95       	ret

000001ac <uTimer>:
            i++; /* increment loop number */
        } /* end if */
    } /* end while */
} /* mTimer */

void uTimer(unsigned int count){
 1ac:	9c 01       	movw	r18, r24
    the system clock. You can also use a pre-scaler on the Timer, by 1, 8, 64, 256, or 1024 to lower the speed.
    The system clock has been pre-scaled by 2. This means it's running at half speed, 8MHz. See Technical manual for
    ATmega2560 (i.e. full manual) and look up "16-bit Timer/Counter1." */

    /* Set the Waveform Generation mode bit description to Clear Timer on Compare Match mode (CTC) only */
    TCCR1B |= _BV(WGM12); /* set WGM bits to 0100, see page 145 */
 1ae:	e1 e8       	ldi	r30, 0x81	; 129
 1b0:	f0 e0       	ldi	r31, 0x00	; 0
 1b2:	90 81       	ld	r25, Z
 1b4:	98 60       	ori	r25, 0x08	; 8
 1b6:	90 83       	st	Z, r25
    /* Note WGM is spread over two registers. */

    OCR1A = count; /* Set Output Compare Register equal to the count variable. Since this is a 16 bit timer it should be able to hold all possible values of count
 1b8:	30 93 89 00 	sts	0x0089, r19	; 0x800089 <__TEXT_REGION_LENGTH__+0x7c0089>
 1bc:	20 93 88 00 	sts	0x0088, r18	; 0x800088 <__TEXT_REGION_LENGTH__+0x7c0088>
    TCNT1 = 0x0000; /* Sets initial value of Timer Counter to 0x0000 */

    TIFR1 |= _BV(OCF1A); /* clear the timer interrupt flag and begin new timing */
 1c0:	b1 9a       	sbi	0x16, 1	; 22
    /* If the following statement is confusing, please ask for clarification! */

    /* Poll the timer to determine when the timer has reached 0x0001 */
    while((TIFR1 & 0x02) != 0x02){}
 1c2:	b1 9b       	sbis	0x16, 1	; 22
 1c4:	fe cf       	rjmp	.-4      	; 0x1c2 <uTimer+0x16>
	TIFR1 |= _BV(OCF1A); /* clear interrupt flag by writing a ONE to the bit */
 1c6:	b1 9a       	sbi	0x16, 1	; 22
 1c8:	08 95       	ret

000001ca <_exit>:
 1ca:	f8 94       	cli

000001cc <__stop_program>:
 1cc:	ff cf       	rjmp	.-2      	; 0x1cc <__stop_program>
